#include <math.h>
#include <stdio.h>
#include <stdlib.h>
#include <string.h>

int main ()
{
	int m,n,i,j;
	int d[100];
	int c[100];
	float sum;
	scanf("%d",&m);
	for (i=0;i<m;i++){
		scanf("%d",&n);
		d[0]=2;
		c[0]=1;
		sum=(float)d[0]/c[0];
		for (j=1;j<n;j++){
			d[j]=d[j-1]+c[j-1];
			c[j]=d[j-1];
			sum+=(float)d[j]/c[j];
		}
		printf("%.3f\n",sum);
	}
	return 0;
}