; ModuleID = '29/375.c'
source_filename = "29/375.c"
target datalayout = "e-m:e-p270:32:32-p271:32:32-p272:64:64-i64:64-f80:128-n8:16:32:64-S128"
target triple = "x86_64-pc-linux-gnu"

@.str = private unnamed_addr constant [3 x i8] c"%d\00", align 1
@.str.1 = private unnamed_addr constant [6 x i8] c"%.3f\0A\00", align 1

; Function Attrs: noinline nounwind uwtable
define dso_local i32 @main() #0 {
  %1 = alloca i32, align 4
  %2 = alloca i32, align 4
  %3 = alloca i32, align 4
  %4 = alloca i32, align 4
  %5 = alloca i32, align 4
  %6 = alloca [100 x i32], align 16
  %7 = alloca [100 x i32], align 16
  %8 = alloca float, align 4
  store i32 0, i32* %1, align 4
  %9 = call i32 (i8*, ...) @__isoc99_scanf(i8* getelementptr inbounds ([3 x i8], [3 x i8]* @.str, i64 0, i64 0), i32* %2)
  store i32 0, i32* %4, align 4
  br label %10

10:                                               ; preds = %72, %0
  %11 = load i32, i32* %4, align 4
  %12 = load i32, i32* %2, align 4
  %13 = icmp slt i32 %11, %12
  br i1 %13, label %14, label %75

14:                                               ; preds = %10
  %15 = call i32 (i8*, ...) @__isoc99_scanf(i8* getelementptr inbounds ([3 x i8], [3 x i8]* @.str, i64 0, i64 0), i32* %3)
  %16 = getelementptr inbounds [100 x i32], [100 x i32]* %6, i64 0, i64 0
  store i32 2, i32* %16, align 16
  %17 = getelementptr inbounds [100 x i32], [100 x i32]* %7, i64 0, i64 0
  store i32 1, i32* %17, align 16
  %18 = getelementptr inbounds [100 x i32], [100 x i32]* %6, i64 0, i64 0
  %19 = load i32, i32* %18, align 16
  %20 = sitofp i32 %19 to float
  %21 = getelementptr inbounds [100 x i32], [100 x i32]* %7, i64 0, i64 0
  %22 = load i32, i32* %21, align 16
  %23 = sitofp i32 %22 to float
  %24 = fdiv float %20, %23
  store float %24, float* %8, align 4
  store i32 1, i32* %5, align 4
  br label %25

25:                                               ; preds = %65, %14
  %26 = load i32, i32* %5, align 4
  %27 = load i32, i32* %3, align 4
  %28 = icmp slt i32 %26, %27
  br i1 %28, label %29, label %68

29:                                               ; preds = %25
  %30 = load i32, i32* %5, align 4
  %31 = sub nsw i32 %30, 1
  %32 = sext i32 %31 to i64
  %33 = getelementptr inbounds [100 x i32], [100 x i32]* %6, i64 0, i64 %32
  %34 = load i32, i32* %33, align 4
  %35 = load i32, i32* %5, align 4
  %36 = sub nsw i32 %35, 1
  %37 = sext i32 %36 to i64
  %38 = getelementptr inbounds [100 x i32], [100 x i32]* %7, i64 0, i64 %37
  %39 = load i32, i32* %38, align 4
  %40 = add nsw i32 %34, %39
  %41 = load i32, i32* %5, align 4
  %42 = sext i32 %41 to i64
  %43 = getelementptr inbounds [100 x i32], [100 x i32]* %6, i64 0, i64 %42
  store i32 %40, i32* %43, align 4
  %44 = load i32, i32* %5, align 4
  %45 = sub nsw i32 %44, 1
  %46 = sext i32 %45 to i64
  %47 = getelementptr inbounds [100 x i32], [100 x i32]* %6, i64 0, i64 %46
  %48 = load i32, i32* %47, align 4
  %49 = load i32, i32* %5, align 4
  %50 = sext i32 %49 to i64
  %51 = getelementptr inbounds [100 x i32], [100 x i32]* %7, i64 0, i64 %50
  store i32 %48, i32* %51, align 4
  %52 = load i32, i32* %5, align 4
  %53 = sext i32 %52 to i64
  %54 = getelementptr inbounds [100 x i32], [100 x i32]* %6, i64 0, i64 %53
  %55 = load i32, i32* %54, align 4
  %56 = sitofp i32 %55 to float
  %57 = load i32, i32* %5, align 4
  %58 = sext i32 %57 to i64
  %59 = getelementptr inbounds [100 x i32], [100 x i32]* %7, i64 0, i64 %58
  %60 = load i32, i32* %59, align 4
  %61 = sitofp i32 %60 to float
  %62 = fdiv float %56, %61
  %63 = load float, float* %8, align 4
  %64 = fadd float %63, %62
  store float %64, float* %8, align 4
  br label %65

65:                                               ; preds = %29
  %66 = load i32, i32* %5, align 4
  %67 = add nsw i32 %66, 1
  store i32 %67, i32* %5, align 4
  br label %25

68:                                               ; preds = %25
  %69 = load float, float* %8, align 4
  %70 = fpext float %69 to double
  %71 = call i32 (i8*, ...) @printf(i8* getelementptr inbounds ([6 x i8], [6 x i8]* @.str.1, i64 0, i64 0), double %70)
  br label %72

72:                                               ; preds = %68
  %73 = load i32, i32* %4, align 4
  %74 = add nsw i32 %73, 1
  store i32 %74, i32* %4, align 4
  br label %10

75:                                               ; preds = %10
  ret i32 0
}

declare dso_local i32 @__isoc99_scanf(i8*, ...) #1

declare dso_local i32 @printf(i8*, ...) #1


!llvm.module.flags = !{!0}
!llvm.ident = !{!1}

!0 = !{i32 1, !"wchar_size", i32 4}
!1 = !{!"clang version 10.0.0-4ubuntu1 "}
